target datalayout = "e-m:e-p270:32:32-p271:32:32-p272:64:64-i64:64-i128:128-f80:128-n8:16:32:64-S128"
target triple = "x86_64-pc-linux-gnu"

%"class.std::__cxx11::basic_string" = type { %"struct.std::__cxx11::basic_string<char>::_Alloc_hider", i64, %union.anon }
%"struct.std::__cxx11::basic_string<char>::_Alloc_hider" = type { ptr }
%union.anon = type { i64, [8 x i8] }
%"class.std::allocator" = type { i8 }

@.str.1 = private unnamed_addr constant [126 x i8] c"generated/home/dtcxzyw/WorkSpace/Projects/compilers/llvm-opt-benchmark/bench/opencv/opencv/modules/imgproc/src/shapedescr.cpp\00", align 1
@.str.13 = private unnamed_addr constant [50 x i8] c"(*buf1 != NULL || *buf2 != NULL) && *buf3 != NULL\00", align 1
@__func__._ZL10icvMemCopyPPdS0_S0_Pi = private unnamed_addr constant [11 x i8] c"icvMemCopy\00", align 1

; Function Attrs: mustprogress nounwind uwtable
define linkonce_odr hidden void @_ZNSt15__new_allocatorIcE10deallocateEPcm(ptr noundef nonnull align 1 dereferenceable(1) %0, ptr noundef %1, i64 noundef %2) #6 comdat align 2 {
  %4 = alloca ptr, align 8
  %5 = alloca ptr, align 8
  %6 = alloca i64, align 8
  store ptr %0, ptr %4, align 8, !tbaa !181
  store ptr %1, ptr %5, align 8, !tbaa !47
  store i64 %2, ptr %6, align 8, !tbaa !50
  %7 = load ptr, ptr %5, align 8, !tbaa !47
  call void @_ZdlPv(ptr noundef %7) #22
  ret void
}

; Function Attrs: mustprogress nounwind uwtable
define linkonce_odr hidden noundef ptr @_ZNSt19__ptr_traits_ptr_toIPKcS0_Lb0EE10pointer_toERS0_(ptr noundef nonnull align 1 dereferenceable(1) %0) #6 comdat align 2 {
  %2 = alloca ptr, align 8
  store ptr %0, ptr %2, align 8, !tbaa !47
  %3 = load ptr, ptr %2, align 8, !tbaa !47
  ret ptr %3
}

; Function Attrs: mustprogress uwtable
define linkonce_odr hidden void @_ZNSt16allocator_traitsISaIcEE10deallocateERS0_Pcm(ptr noundef nonnull align 1 dereferenceable(1) %0, ptr noundef %1, i64 noundef %2) #7 comdat align 2 {
  %4 = alloca ptr, align 8
  %5 = alloca ptr, align 8
  %6 = alloca i64, align 8
  store ptr %0, ptr %4, align 8, !tbaa !43
  store ptr %1, ptr %5, align 8, !tbaa !47
  store i64 %2, ptr %6, align 8, !tbaa !50
  %7 = load ptr, ptr %4, align 8, !tbaa !43
  %8 = load ptr, ptr %5, align 8, !tbaa !47
  %9 = load i64, ptr %6, align 8, !tbaa !50
  call void @_ZNSt15__new_allocatorIcE10deallocateEPcm(ptr noundef nonnull align 1 dereferenceable(1) %7, ptr noundef %8, i64 noundef %9)
  ret void
}

; Function Attrs: mustprogress nounwind uwtable
define available_externally noundef nonnull align 1 dereferenceable(1) ptr @_ZNSt7__cxx1112basic_stringIcSt11char_traitsIcESaIcEE16_M_get_allocatorEv(ptr noundef nonnull align 8 dereferenceable(32) %0) #6 align 2 {
  %2 = alloca ptr, align 8
  store ptr %0, ptr %2, align 8, !tbaa !45
  %3 = load ptr, ptr %2, align 8
  %4 = getelementptr inbounds nuw %"class.std::__cxx11::basic_string", ptr %3, i32 0, i32 0
  ret ptr %4
}

; Function Attrs: mustprogress nounwind uwtable
define available_externally noundef ptr @_ZNKSt7__cxx1112basic_stringIcSt11char_traitsIcESaIcEE13_M_local_dataEv(ptr noundef nonnull align 8 dereferenceable(32) %0) #6 align 2 {
  %2 = alloca ptr, align 8
  store ptr %0, ptr %2, align 8, !tbaa !45
  %3 = load ptr, ptr %2, align 8
  %4 = getelementptr inbounds nuw %"class.std::__cxx11::basic_string", ptr %3, i32 0, i32 2
  %5 = getelementptr inbounds [16 x i8], ptr %4, i64 0, i64 0
  %6 = call noundef ptr @_ZNSt19__ptr_traits_ptr_toIPKcS0_Lb0EE10pointer_toERS0_(ptr noundef nonnull align 1 dereferenceable(1) %5) #18
  ret ptr %6
}

; Function Attrs: mustprogress nounwind uwtable
define available_externally noundef ptr @_ZNKSt7__cxx1112basic_stringIcSt11char_traitsIcESaIcEE7_M_dataEv(ptr noundef nonnull align 8 dereferenceable(32) %0) #6 align 2 {
  %2 = alloca ptr, align 8
  store ptr %0, ptr %2, align 8, !tbaa !45
  %3 = load ptr, ptr %2, align 8
  %4 = getelementptr inbounds nuw %"class.std::__cxx11::basic_string", ptr %3, i32 0, i32 0
  %5 = getelementptr inbounds nuw %"struct.std::__cxx11::basic_string<char>::_Alloc_hider", ptr %4, i32 0, i32 0
  %6 = load ptr, ptr %5, align 8, !tbaa !186
  ret ptr %6
}

; Function Attrs: mustprogress nounwind uwtable
define available_externally void @_ZNSt7__cxx1112basic_stringIcSt11char_traitsIcESaIcEE10_M_destroyEm(ptr noundef nonnull align 8 dereferenceable(32) %0, i64 noundef %1) #6 align 2 personality ptr @__gxx_personality_v0 {
  %3 = alloca ptr, align 8
  %4 = alloca i64, align 8
  %5 = alloca ptr, align 8
  %6 = alloca i32, align 4
  store ptr %0, ptr %3, align 8, !tbaa !45
  store i64 %1, ptr %4, align 8, !tbaa !50
  %7 = load ptr, ptr %3, align 8
  %8 = invoke noundef nonnull align 1 dereferenceable(1) ptr @_ZNSt7__cxx1112basic_stringIcSt11char_traitsIcESaIcEE16_M_get_allocatorEv(ptr noundef nonnull align 8 dereferenceable(32) %7)
          to label %9 unwind label %14

9:                                                ; preds = %2
  %10 = call noundef ptr @_ZNKSt7__cxx1112basic_stringIcSt11char_traitsIcESaIcEE7_M_dataEv(ptr noundef nonnull align 8 dereferenceable(32) %7)
  %11 = load i64, ptr %4, align 8, !tbaa !50
  %12 = add i64 %11, 1
  invoke void @_ZNSt16allocator_traitsISaIcEE10deallocateERS0_Pcm(ptr noundef nonnull align 1 dereferenceable(1) %8, ptr noundef %10, i64 noundef %12)
          to label %13 unwind label %14

13:                                               ; preds = %9
  ret void

14:                                               ; preds = %9, %2
  %15 = landingpad { ptr, i32 }
          filter [0 x ptr] zeroinitializer
  %16 = extractvalue { ptr, i32 } %15, 0
  store ptr %16, ptr %5, align 8
  %17 = extractvalue { ptr, i32 } %15, 1
  store i32 %17, ptr %6, align 4
  br label %18

18:                                               ; preds = %14
  %19 = load ptr, ptr %5, align 8
  call void @__cxa_call_unexpected(ptr %19) #19
  unreachable
}

; Function Attrs: mustprogress uwtable
define available_externally noundef zeroext i1 @_ZNKSt7__cxx1112basic_stringIcSt11char_traitsIcESaIcEE11_M_is_localEv(ptr noundef nonnull align 8 dereferenceable(32) %0) #7 align 2 {
  %2 = alloca i1, align 1
  %3 = alloca ptr, align 8
  store ptr %0, ptr %3, align 8, !tbaa !45
  %4 = load ptr, ptr %3, align 8
  %5 = call noundef ptr @_ZNKSt7__cxx1112basic_stringIcSt11char_traitsIcESaIcEE7_M_dataEv(ptr noundef nonnull align 8 dereferenceable(32) %4)
  %6 = call noundef ptr @_ZNKSt7__cxx1112basic_stringIcSt11char_traitsIcESaIcEE13_M_local_dataEv(ptr noundef nonnull align 8 dereferenceable(32) %4)
  %7 = icmp eq ptr %5, %6
  br i1 %7, label %8, label %14

8:                                                ; preds = %1
  %9 = getelementptr inbounds nuw %"class.std::__cxx11::basic_string", ptr %4, i32 0, i32 1
  %10 = load i64, ptr %9, align 8, !tbaa !183
  %11 = icmp ugt i64 %10, 15
  br i1 %11, label %12, label %13

12:                                               ; preds = %8
  unreachable

13:                                               ; preds = %8
  store i1 true, ptr %2, align 1
  br label %15

14:                                               ; preds = %1
  store i1 false, ptr %2, align 1
  br label %15

15:                                               ; preds = %14, %13
  %16 = load i1, ptr %2, align 1
  ret i1 %16
}

; Function Attrs: noinline noreturn nounwind uwtable
define linkonce_odr hidden void @__clang_call_terminate(ptr noundef %0) #13 comdat {
  %2 = call ptr @__cxa_begin_catch(ptr %0) #18
  call void @_ZSt9terminatev() #20
  unreachable
}

; Function Attrs: mustprogress uwtable
define available_externally void @_ZNSt7__cxx1112basic_stringIcSt11char_traitsIcESaIcEE10_M_disposeEv(ptr noundef nonnull align 8 dereferenceable(32) %0) #7 align 2 {
  %2 = alloca ptr, align 8
  store ptr %0, ptr %2, align 8, !tbaa !45
  %3 = load ptr, ptr %2, align 8
  %4 = call noundef zeroext i1 @_ZNKSt7__cxx1112basic_stringIcSt11char_traitsIcESaIcEE11_M_is_localEv(ptr noundef nonnull align 8 dereferenceable(32) %3)
  br i1 %4, label %8, label %5

5:                                                ; preds = %1
  %6 = getelementptr inbounds nuw %"class.std::__cxx11::basic_string", ptr %3, i32 0, i32 2
  %7 = load i64, ptr %6, align 8, !tbaa !153
  call void @_ZNSt7__cxx1112basic_stringIcSt11char_traitsIcESaIcEE10_M_destroyEm(ptr noundef nonnull align 8 dereferenceable(32) %3, i64 noundef %7) #18
  br label %8

8:                                                ; preds = %5, %1
  ret void
}

; Function Attrs: mustprogress nounwind uwtable
define linkonce_odr hidden void @_ZNSt15__new_allocatorIcEC2Ev(ptr noundef nonnull align 1 dereferenceable(1) %0) unnamed_addr #6 comdat align 2 {
  %2 = alloca ptr, align 8
  store ptr %0, ptr %2, align 8, !tbaa !181
  ret void
}

; Function Attrs: mustprogress nounwind uwtable
define linkonce_odr hidden void @_ZNSt15__new_allocatorIcED2Ev(ptr noundef nonnull align 1 dereferenceable(1) %0) unnamed_addr #6 comdat align 2 {
  %2 = alloca ptr, align 8
  store ptr %0, ptr %2, align 8, !tbaa !181
  ret void
}

; Function Attrs: mustprogress nounwind uwtable
define available_externally void @_ZNSt7__cxx1112basic_stringIcSt11char_traitsIcESaIcEED2Ev(ptr noundef nonnull align 8 dereferenceable(32) %0) unnamed_addr #6 align 2 personality ptr @__gxx_personality_v0 {
  %2 = alloca ptr, align 8
  store ptr %0, ptr %2, align 8, !tbaa !45
  %3 = load ptr, ptr %2, align 8
  invoke void @_ZNSt7__cxx1112basic_stringIcSt11char_traitsIcESaIcEE10_M_disposeEv(ptr noundef nonnull align 8 dereferenceable(32) %3)
          to label %4 unwind label %6

4:                                                ; preds = %1
  %5 = getelementptr inbounds nuw %"class.std::__cxx11::basic_string", ptr %3, i32 0, i32 0
  call void @_ZNSt15__new_allocatorIcED2Ev(ptr noundef nonnull align 8 dereferenceable(8) %5) #18
  ret void

6:                                                ; preds = %1
  %7 = landingpad { ptr, i32 }
          catch ptr null
  %8 = extractvalue { ptr, i32 } %7, 0
  call void @__clang_call_terminate(ptr %8) #20
  unreachable
}

; Function Attrs: mustprogress nounwind uwtable
define available_externally void @_ZNSaIcEC2Ev(ptr noundef nonnull align 1 dereferenceable(1) %0) unnamed_addr #6 align 2 {
  %2 = alloca ptr, align 8
  store ptr %0, ptr %2, align 8, !tbaa !43
  %3 = load ptr, ptr %2, align 8
  call void @_ZNSt15__new_allocatorIcEC2Ev(ptr noundef nonnull align 1 dereferenceable(1) %3) #18
  ret void
}

; Function Attrs: mustprogress uwtable
define internal void @_ZL10icvMemCopyPPdS0_S0_Pi(ptr noundef %0, ptr noundef %1, ptr noundef %2, ptr noundef %3) #7 personality ptr @__gxx_personality_v0 {
  %5 = alloca ptr, align 8
  %6 = alloca ptr, align 8
  %7 = alloca ptr, align 8
  %8 = alloca ptr, align 8
  %9 = alloca %"class.std::__cxx11::basic_string", align 8
  %10 = alloca %"class.std::allocator", align 1
  %11 = alloca ptr, align 8
  %12 = alloca i32, align 4
  %13 = alloca i32, align 4
  store ptr %0, ptr %5, align 8, !tbaa !175
  store ptr %1, ptr %6, align 8, !tbaa !175
  store ptr %2, ptr %7, align 8, !tbaa !175
  store ptr %3, ptr %8, align 8, !tbaa !178
  br label %14

14:                                               ; preds = %4
  %15 = load ptr, ptr %5, align 8, !tbaa !175
  %16 = load ptr, ptr %15, align 8, !tbaa !79
  %17 = icmp ne ptr %16, null
  br i1 %17, label %22, label %18

18:                                               ; preds = %14
  %19 = load ptr, ptr %6, align 8, !tbaa !175
  %20 = load ptr, ptr %19, align 8, !tbaa !79
  %21 = icmp ne ptr %20, null
  br i1 %21, label %22, label %27

22:                                               ; preds = %18, %14
  %23 = load ptr, ptr %7, align 8, !tbaa !175
  %24 = load ptr, ptr %23, align 8, !tbaa !79
  %25 = icmp ne ptr %24, null
  br i1 %25, label %26, label %27

26:                                               ; preds = %22
  br label %39

27:                                               ; preds = %22, %18
  call void @llvm.lifetime.start.p0(i64 32, ptr %9) #18
  call void @llvm.lifetime.start.p0(i64 1, ptr %10) #18
  call void @_ZNSaIcEC2Ev(ptr noundef nonnull align 1 dereferenceable(1) %10) #18
  invoke void @_ZNSt7__cxx1112basic_stringIcSt11char_traitsIcESaIcEEC2EPKcRKS3_(ptr noundef nonnull align 8 dereferenceable(32) %9, ptr noundef @.str.13, ptr noundef nonnull align 1 dereferenceable(1) %10)
          to label %28 unwind label %30

28:                                               ; preds = %27
  invoke void @_ZN2cv5errorEiRKNSt7__cxx1112basic_stringIcSt11char_traitsIcESaIcEEEPKcS9_i(i32 noundef -215, ptr noundef nonnull align 8 dereferenceable(32) %9, ptr noundef @__func__._ZL10icvMemCopyPPdS0_S0_Pi, ptr noundef @.str.1, i32 noundef 901) #19
          to label %29 unwind label %34

29:                                               ; preds = %28
  unreachable

30:                                               ; preds = %27
  %31 = landingpad { ptr, i32 }
          cleanup
  %32 = extractvalue { ptr, i32 } %31, 0
  store ptr %32, ptr %11, align 8
  %33 = extractvalue { ptr, i32 } %31, 1
  store i32 %33, ptr %12, align 4
  br label %38

34:                                               ; preds = %28
  %35 = landingpad { ptr, i32 }
          cleanup
  %36 = extractvalue { ptr, i32 } %35, 0
  store ptr %36, ptr %11, align 8
  %37 = extractvalue { ptr, i32 } %35, 1
  store i32 %37, ptr %12, align 4
  call void @_ZNSt7__cxx1112basic_stringIcSt11char_traitsIcESaIcEED2Ev(ptr noundef nonnull align 8 dereferenceable(32) %9) #18
  br label %38

38:                                               ; preds = %34, %30
  call void @_ZNSt15__new_allocatorIcED2Ev(ptr noundef nonnull align 1 dereferenceable(1) %10) #18
  call void @llvm.lifetime.end.p0(i64 1, ptr %10) #18
  call void @llvm.lifetime.end.p0(i64 32, ptr %9) #18
  br label %97

39:                                               ; preds = %26
  br label %40

40:                                               ; preds = %39
  call void @llvm.lifetime.start.p0(i64 4, ptr %13) #18
  %41 = load ptr, ptr %8, align 8, !tbaa !178
  %42 = load i32, ptr %41, align 4, !tbaa !12
  store i32 %42, ptr %13, align 4, !tbaa !12
  %43 = load ptr, ptr %6, align 8, !tbaa !175
  %44 = load ptr, ptr %43, align 8, !tbaa !79
  %45 = icmp eq ptr %44, null
  br i1 %45, label %46, label %71

46:                                               ; preds = %40
  %47 = load ptr, ptr %8, align 8, !tbaa !178
  %48 = load i32, ptr %47, align 4, !tbaa !12
  %49 = mul nsw i32 2, %48
  %50 = load ptr, ptr %8, align 8, !tbaa !178
  store i32 %49, ptr %50, align 4, !tbaa !12
  %51 = load ptr, ptr %8, align 8, !tbaa !178
  %52 = load i32, ptr %51, align 4, !tbaa !12
  %53 = sext i32 %52 to i64
  %54 = mul i64 %53, 8
  %55 = call ptr @cvAlloc(i64 noundef %54)
  %56 = load ptr, ptr %6, align 8, !tbaa !175
  store ptr %55, ptr %56, align 8, !tbaa !79
  %57 = load ptr, ptr %6, align 8, !tbaa !175
  %58 = load ptr, ptr %57, align 8, !tbaa !79
  %59 = load ptr, ptr %7, align 8, !tbaa !175
  %60 = load ptr, ptr %59, align 8, !tbaa !79
  %61 = load i32, ptr %13, align 4, !tbaa !12
  %62 = sext i32 %61 to i64
  %63 = mul i64 %62, 8
  call void @llvm.memcpy.p0.p0.i64(ptr align 8 %58, ptr align 8 %60, i64 %63, i1 false)
  %64 = load ptr, ptr %6, align 8, !tbaa !175
  %65 = load ptr, ptr %64, align 8, !tbaa !79
  %66 = load ptr, ptr %7, align 8, !tbaa !175
  store ptr %65, ptr %66, align 8, !tbaa !79
  %67 = load ptr, ptr %5, align 8, !tbaa !175
  %68 = load ptr, ptr %67, align 8, !tbaa !79
  call void @cvFree_(ptr noundef %68)
  %69 = load ptr, ptr %5, align 8, !tbaa !175
  store ptr null, ptr %69, align 8, !tbaa !79
  %70 = load ptr, ptr %5, align 8, !tbaa !175
  store ptr null, ptr %70, align 8, !tbaa !79
  br label %96

71:                                               ; preds = %40
  %72 = load ptr, ptr %8, align 8, !tbaa !178
  %73 = load i32, ptr %72, align 4, !tbaa !12
  %74 = mul nsw i32 2, %73
  %75 = load ptr, ptr %8, align 8, !tbaa !178
  store i32 %74, ptr %75, align 4, !tbaa !12
  %76 = load ptr, ptr %8, align 8, !tbaa !178
  %77 = load i32, ptr %76, align 4, !tbaa !12
  %78 = sext i32 %77 to i64
  %79 = mul i64 %78, 8
  %80 = call ptr @cvAlloc(i64 noundef %79)
  %81 = load ptr, ptr %5, align 8, !tbaa !175
  store ptr %80, ptr %81, align 8, !tbaa !79
  %82 = load ptr, ptr %5, align 8, !tbaa !175
  %83 = load ptr, ptr %82, align 8, !tbaa !79
  %84 = load ptr, ptr %7, align 8, !tbaa !175
  %85 = load ptr, ptr %84, align 8, !tbaa !79
  %86 = load i32, ptr %13, align 4, !tbaa !12
  %87 = sext i32 %86 to i64
  %88 = mul i64 %87, 8
  call void @llvm.memcpy.p0.p0.i64(ptr align 8 %83, ptr align 8 %85, i64 %88, i1 false)
  %89 = load ptr, ptr %5, align 8, !tbaa !175
  %90 = load ptr, ptr %89, align 8, !tbaa !79
  %91 = load ptr, ptr %7, align 8, !tbaa !175
  store ptr %90, ptr %91, align 8, !tbaa !79
  %92 = load ptr, ptr %6, align 8, !tbaa !175
  %93 = load ptr, ptr %92, align 8, !tbaa !79
  call void @cvFree_(ptr noundef %93)
  %94 = load ptr, ptr %6, align 8, !tbaa !175
  store ptr null, ptr %94, align 8, !tbaa !79
  %95 = load ptr, ptr %6, align 8, !tbaa !175
  store ptr null, ptr %95, align 8, !tbaa !79
  br label %96

96:                                               ; preds = %71, %46
  call void @llvm.lifetime.end.p0(i64 4, ptr %13) #18
  ret void

97:                                               ; preds = %38
  %98 = load ptr, ptr %11, align 8
  %99 = load i32, ptr %12, align 4
  %100 = insertvalue { ptr, i32 } poison, ptr %98, 0
  %101 = insertvalue { ptr, i32 } %100, i32 %99, 1
  resume { ptr, i32 } %101
}