; Function Attrs: mustprogress uwtable
define internal fastcc void @_ZL10icvMemCopyPPdS0_S0_Pi(ptr noundef nonnull captures(none) %0, ptr noundef nonnull captures(none) %1, ptr noundef nonnull captures(none) %2, ptr noundef nonnull captures(none) %3) unnamed_addr #4 personality ptr @__gxx_personality_v0 {
  %5 = alloca %"class.std::__cxx11::basic_string", align 8
  %6 = alloca %"class.std::allocator", align 1
  %7 = load ptr, ptr %0, align 8, !tbaa !109
  %.not = icmp eq ptr %7, null
  br i1 %.not, label %8, label %10

8:                                                ; preds = %4
  %9 = load ptr, ptr %1, align 8, !tbaa !109
  %.not31 = icmp eq ptr %9, null
  br i1 %.not31, label %12, label %10

10:                                               ; preds = %8, %4
  %11 = load ptr, ptr %2, align 8, !tbaa !109
  %.not32 = icmp eq ptr %11, null
  br i1 %.not32, label %12, label %22

12:                                               ; preds = %10, %8
  call void @llvm.lifetime.start.p0(i64 32, ptr nonnull %5) #18
  call void @llvm.lifetime.start.p0(i64 1, ptr nonnull %6) #18
  call void @_ZNSt7__cxx1112basic_stringIcSt11char_traitsIcESaIcEEC2EPKcRKS3_(ptr noundef nonnull align 8 dereferenceable(32) %5, ptr noundef nonnull @.str.13, ptr noundef nonnull align 1 dereferenceable(1) %6)
  invoke void @_ZN2cv5errorEiRKNSt7__cxx1112basic_stringIcSt11char_traitsIcESaIcEEEPKcS9_i(i32 noundef -215, ptr noundef nonnull align 8 dereferenceable(32) %5, ptr noundef nonnull @__func__._ZL10icvMemCopyPPdS0_S0_Pi, ptr noundef nonnull @.str.1, i32 noundef 901) #19
          to label %13 unwind label %14

13:                                               ; preds = %12
  unreachable

14:                                               ; preds = %12
  %15 = landingpad { ptr, i32 }
          cleanup
  %16 = load ptr, ptr %5, align 8, !tbaa !22
  %17 = getelementptr inbounds nuw i8, ptr %5, i64 16
  %18 = icmp eq ptr %16, %17
  br i1 %18, label %_ZNKSt7__cxx1112basic_stringIcSt11char_traitsIcESaIcEE11_M_is_localEv.exit.thread.i.i, label %_ZNKSt7__cxx1112basic_stringIcSt11char_traitsIcESaIcEE11_M_is_localEv.exit.i.i

_ZNKSt7__cxx1112basic_stringIcSt11char_traitsIcESaIcEE11_M_is_localEv.exit.thread.i.i: ; preds = %14
  %19 = getelementptr inbounds nuw i8, ptr %5, i64 8
  %20 = load i64, ptr %19, align 8, !tbaa !26
  %21 = icmp ult i64 %20, 16
  call void @llvm.assume(i1 %21)
  br label %_ZNSt7__cxx1112basic_stringIcSt11char_traitsIcESaIcEED2Ev.exit

_ZNKSt7__cxx1112basic_stringIcSt11char_traitsIcESaIcEE11_M_is_localEv.exit.i.i: ; preds = %14
  call void @_ZdlPv(ptr noundef %16) #20
  br label %_ZNSt7__cxx1112basic_stringIcSt11char_traitsIcESaIcEED2Ev.exit

_ZNSt7__cxx1112basic_stringIcSt11char_traitsIcESaIcEED2Ev.exit: ; preds = %_ZNKSt7__cxx1112basic_stringIcSt11char_traitsIcESaIcEE11_M_is_localEv.exit.i.i, %_ZNKSt7__cxx1112basic_stringIcSt11char_traitsIcESaIcEE11_M_is_localEv.exit.thread.i.i
  call void @llvm.lifetime.end.p0(i64 1, ptr nonnull %6) #18
  call void @llvm.lifetime.end.p0(i64 32, ptr nonnull %5) #18
  resume { ptr, i32 } %15

22:                                               ; preds = %10
  %23 = load i32, ptr %3, align 4, !tbaa !70
  %24 = load ptr, ptr %1, align 8, !tbaa !109
  %25 = icmp eq ptr %24, null
  %26 = shl nsw i32 %23, 1
  store i32 %26, ptr %3, align 4, !tbaa !70
  %27 = sext i32 %26 to i64
  %28 = shl nsw i64 %27, 3
  %29 = tail call ptr @cvAlloc(i64 noundef %28)
  %30 = sext i32 %23 to i64
  %31 = shl nsw i64 %30, 3
  %. = select i1 %25, ptr %1, ptr %0
  %.40 = select i1 %25, ptr %0, ptr %1
  store ptr %29, ptr %., align 8, !tbaa !109
  %32 = load ptr, ptr %2, align 8, !tbaa !109
  tail call void @llvm.memcpy.p0.p0.i64(ptr align 8 %29, ptr align 8 %32, i64 %31, i1 false)
  %33 = load ptr, ptr %., align 8, !tbaa !109
  store ptr %33, ptr %2, align 8, !tbaa !109
  %34 = load ptr, ptr %.40, align 8, !tbaa !109
  tail call void @cvFree_(ptr noundef %34)
  store ptr null, ptr %.40, align 8, !tbaa !109
  ret void
}